; ModuleID = 'source-C-CXX/2/1569.c'
source_filename = "source-C-CXX/2/1569.c"
target datalayout = "e-m:e-p270:32:32-p271:32:32-p272:64:64-i64:64-f80:128-n8:16:32:64-S128"
target triple = "x86_64-pc-linux-gnu"

@.str = private unnamed_addr constant [6 x i8] c"%d %d\00", align 1
@.str.1 = private unnamed_addr constant [3 x i8] c"%d\00", align 1
@.str.2 = private unnamed_addr constant [3 x i8] c"no\00", align 1
@.str.3 = private unnamed_addr constant [4 x i8] c"yes\00", align 1

; Function Attrs: nofree nounwind sspstrong uwtable
define dso_local i32 @main(i32 %0, i8** nocapture readnone %1) local_unnamed_addr #0 {
  %3 = alloca [2 x [1000 x i32]], align 16
  %4 = alloca i32, align 4
  %5 = alloca i32, align 4
  %6 = bitcast [2 x [1000 x i32]]* %3 to i8*
  call void @llvm.lifetime.start.p0i8(i64 8000, i8* nonnull %6) #4
  %7 = bitcast i32* %4 to i8*
  call void @llvm.lifetime.start.p0i8(i64 4, i8* nonnull %7) #4
  %8 = bitcast i32* %5 to i8*
  call void @llvm.lifetime.start.p0i8(i64 4, i8* nonnull %8) #4
  %9 = call i32 (i8*, ...) @__isoc99_scanf(i8* getelementptr inbounds ([6 x i8], [6 x i8]* @.str, i64 0, i64 0), i32* nonnull %4, i32* nonnull %5)
  %10 = load i32, i32* %4, align 4, !tbaa !5
  %11 = icmp sgt i32 %10, 0
  br i1 %11, label %23, label %149

12:                                               ; preds = %23
  %13 = add i32 %28, -1
  %14 = load i32, i32* %5, align 4
  %15 = icmp sgt i32 %28, 1
  br i1 %15, label %16, label %149

16:                                               ; preds = %12
  %17 = zext i32 %13 to i64
  %18 = zext i32 %13 to i64
  %19 = insertelement <4 x i32> poison, i32 %14, i32 0
  %20 = shufflevector <4 x i32> %19, <4 x i32> poison, <4 x i32> zeroinitializer
  %21 = insertelement <4 x i32> poison, i32 %14, i32 0
  %22 = shufflevector <4 x i32> %21, <4 x i32> poison, <4 x i32> zeroinitializer
  br label %35

23:                                               ; preds = %2, %23
  %24 = phi i64 [ %27, %23 ], [ 0, %2 ]
  %25 = getelementptr inbounds [2 x [1000 x i32]], [2 x [1000 x i32]]* %3, i64 0, i64 0, i64 %24
  %26 = call i32 (i8*, ...) @__isoc99_scanf(i8* getelementptr inbounds ([3 x i8], [3 x i8]* @.str.1, i64 0, i64 0), i32* nonnull %25)
  %27 = add nuw nsw i64 %24, 1
  %28 = load i32, i32* %4, align 4, !tbaa !5
  %29 = sext i32 %28 to i64
  %30 = icmp slt i64 %27, %29
  br i1 %30, label %23, label %12, !llvm.loop !9

31:                                               ; preds = %135, %126, %35
  %32 = phi i32 [ %38, %35 ], [ %130, %126 ], [ %143, %135 ]
  %33 = add nuw nsw i64 %37, 1
  %34 = icmp eq i64 %46, %18
  br i1 %34, label %146, label %35, !llvm.loop !11

35:                                               ; preds = %16, %31
  %36 = phi i64 [ 0, %16 ], [ %46, %31 ]
  %37 = phi i64 [ 1, %16 ], [ %33, %31 ]
  %38 = phi i32 [ 0, %16 ], [ %32, %31 ]
  %39 = xor i64 %36, -1
  %40 = add nsw i64 %39, %18
  %41 = add i64 %40, -8
  %42 = lshr i64 %41, 3
  %43 = add nuw nsw i64 %42, 1
  %44 = xor i64 %36, -1
  %45 = add nsw i64 %44, %18
  %46 = add nuw nsw i64 %36, 1
  %47 = icmp ult i64 %46, %17
  br i1 %47, label %48, label %31

48:                                               ; preds = %35
  %49 = getelementptr inbounds [2 x [1000 x i32]], [2 x [1000 x i32]]* %3, i64 0, i64 0, i64 %36
  %50 = load i32, i32* %49, align 4, !tbaa !5
  %51 = icmp ult i64 %45, 8
  br i1 %51, label %132, label %52

52:                                               ; preds = %48
  %53 = and i64 %45, -8
  %54 = add i64 %37, %53
  %55 = insertelement <4 x i32> <i32 poison, i32 0, i32 0, i32 0>, i32 %38, i32 0
  %56 = insertelement <4 x i32> poison, i32 %50, i32 0
  %57 = shufflevector <4 x i32> %56, <4 x i32> poison, <4 x i32> zeroinitializer
  %58 = insertelement <4 x i32> poison, i32 %50, i32 0
  %59 = shufflevector <4 x i32> %58, <4 x i32> poison, <4 x i32> zeroinitializer
  %60 = and i64 %43, 1
  %61 = icmp ult i64 %41, 8
  br i1 %61, label %103, label %62

62:                                               ; preds = %52
  %63 = and i64 %43, 4611686018427387902
  br label %64

64:                                               ; preds = %64, %62
  %65 = phi i64 [ 0, %62 ], [ %100, %64 ]
  %66 = phi <4 x i32> [ %55, %62 ], [ %98, %64 ]
  %67 = phi <4 x i32> [ zeroinitializer, %62 ], [ %99, %64 ]
  %68 = phi i64 [ %63, %62 ], [ %101, %64 ]
  %69 = add i64 %37, %65
  %70 = getelementptr inbounds [2 x [1000 x i32]], [2 x [1000 x i32]]* %3, i64 0, i64 0, i64 %69
  %71 = bitcast i32* %70 to <4 x i32>*
  %72 = load <4 x i32>, <4 x i32>* %71, align 4, !tbaa !5
  %73 = getelementptr inbounds i32, i32* %70, i64 4
  %74 = bitcast i32* %73 to <4 x i32>*
  %75 = load <4 x i32>, <4 x i32>* %74, align 4, !tbaa !5
  %76 = add nsw <4 x i32> %72, %57
  %77 = add nsw <4 x i32> %75, %59
  %78 = icmp eq <4 x i32> %76, %20
  %79 = icmp eq <4 x i32> %77, %22
  %80 = zext <4 x i1> %78 to <4 x i32>
  %81 = zext <4 x i1> %79 to <4 x i32>
  %82 = add <4 x i32> %66, %80
  %83 = add <4 x i32> %67, %81
  %84 = or i64 %65, 8
  %85 = add i64 %37, %84
  %86 = getelementptr inbounds [2 x [1000 x i32]], [2 x [1000 x i32]]* %3, i64 0, i64 0, i64 %85
  %87 = bitcast i32* %86 to <4 x i32>*
  %88 = load <4 x i32>, <4 x i32>* %87, align 4, !tbaa !5
  %89 = getelementptr inbounds i32, i32* %86, i64 4
  %90 = bitcast i32* %89 to <4 x i32>*
  %91 = load <4 x i32>, <4 x i32>* %90, align 4, !tbaa !5
  %92 = add nsw <4 x i32> %88, %57
  %93 = add nsw <4 x i32> %91, %59
  %94 = icmp eq <4 x i32> %92, %20
  %95 = icmp eq <4 x i32> %93, %22
  %96 = zext <4 x i1> %94 to <4 x i32>
  %97 = zext <4 x i1> %95 to <4 x i32>
  %98 = add <4 x i32> %82, %96
  %99 = add <4 x i32> %83, %97
  %100 = add nuw i64 %65, 16
  %101 = add i64 %68, -2
  %102 = icmp eq i64 %101, 0
  br i1 %102, label %103, label %64, !llvm.loop !12

103:                                              ; preds = %64, %52
  %104 = phi <4 x i32> [ undef, %52 ], [ %98, %64 ]
  %105 = phi <4 x i32> [ undef, %52 ], [ %99, %64 ]
  %106 = phi i64 [ 0, %52 ], [ %100, %64 ]
  %107 = phi <4 x i32> [ %55, %52 ], [ %98, %64 ]
  %108 = phi <4 x i32> [ zeroinitializer, %52 ], [ %99, %64 ]
  %109 = icmp eq i64 %60, 0
  br i1 %109, label %126, label %110

110:                                              ; preds = %103
  %111 = add i64 %37, %106
  %112 = getelementptr inbounds [2 x [1000 x i32]], [2 x [1000 x i32]]* %3, i64 0, i64 0, i64 %111
  %113 = getelementptr inbounds i32, i32* %112, i64 4
  %114 = bitcast i32* %113 to <4 x i32>*
  %115 = load <4 x i32>, <4 x i32>* %114, align 4, !tbaa !5
  %116 = add nsw <4 x i32> %115, %59
  %117 = icmp eq <4 x i32> %116, %22
  %118 = zext <4 x i1> %117 to <4 x i32>
  %119 = add <4 x i32> %108, %118
  %120 = bitcast i32* %112 to <4 x i32>*
  %121 = load <4 x i32>, <4 x i32>* %120, align 4, !tbaa !5
  %122 = add nsw <4 x i32> %121, %57
  %123 = icmp eq <4 x i32> %122, %20
  %124 = zext <4 x i1> %123 to <4 x i32>
  %125 = add <4 x i32> %107, %124
  br label %126

126:                                              ; preds = %103, %110
  %127 = phi <4 x i32> [ %104, %103 ], [ %125, %110 ]
  %128 = phi <4 x i32> [ %105, %103 ], [ %119, %110 ]
  %129 = add <4 x i32> %128, %127
  %130 = call i32 @llvm.vector.reduce.add.v4i32(<4 x i32> %129)
  %131 = icmp eq i64 %45, %53
  br i1 %131, label %31, label %132

132:                                              ; preds = %48, %126
  %133 = phi i64 [ %37, %48 ], [ %54, %126 ]
  %134 = phi i32 [ %38, %48 ], [ %130, %126 ]
  br label %135

135:                                              ; preds = %132, %135
  %136 = phi i64 [ %144, %135 ], [ %133, %132 ]
  %137 = phi i32 [ %143, %135 ], [ %134, %132 ]
  %138 = getelementptr inbounds [2 x [1000 x i32]], [2 x [1000 x i32]]* %3, i64 0, i64 0, i64 %136
  %139 = load i32, i32* %138, align 4, !tbaa !5
  %140 = add nsw i32 %139, %50
  %141 = icmp eq i32 %140, %14
  %142 = zext i1 %141 to i32
  %143 = add nsw i32 %137, %142
  %144 = add nuw nsw i64 %136, 1
  %145 = icmp eq i64 %144, %18
  br i1 %145, label %31, label %135, !llvm.loop !14

146:                                              ; preds = %31
  %147 = icmp eq i32 %32, 0
  %148 = select i1 %147, i8* getelementptr inbounds ([3 x i8], [3 x i8]* @.str.2, i64 0, i64 0), i8* getelementptr inbounds ([4 x i8], [4 x i8]* @.str.3, i64 0, i64 0)
  br label %149

149:                                              ; preds = %146, %12, %2
  %150 = phi i8* [ getelementptr inbounds ([3 x i8], [3 x i8]* @.str.2, i64 0, i64 0), %2 ], [ getelementptr inbounds ([3 x i8], [3 x i8]* @.str.2, i64 0, i64 0), %12 ], [ %148, %146 ]
  %151 = call i32 (i8*, ...) @printf(i8* nonnull dereferenceable(1) %150)
  call void @llvm.lifetime.end.p0i8(i64 4, i8* nonnull %8) #4
  call void @llvm.lifetime.end.p0i8(i64 4, i8* nonnull %7) #4
  call void @llvm.lifetime.end.p0i8(i64 8000, i8* nonnull %6) #4
  ret i32 0
}

; Function Attrs: argmemonly mustprogress nofree nosync nounwind willreturn
declare void @llvm.lifetime.start.p0i8(i64 immarg, i8* nocapture) #1

; Function Attrs: nofree nounwind
declare noundef i32 @__isoc99_scanf(i8* nocapture noundef readonly, ...) local_unnamed_addr #2

; Function Attrs: nofree nounwind
declare noundef i32 @printf(i8* nocapture noundef readonly, ...) local_unnamed_addr #2

; Function Attrs: argmemonly mustprogress nofree nosync nounwind willreturn
declare void @llvm.lifetime.end.p0i8(i64 immarg, i8* nocapture) #1

; Function Attrs: nofree nosync nounwind readnone willreturn
declare i32 @llvm.vector.reduce.add.v4i32(<4 x i32>) #3


!llvm.module.flags = !{!0, !1, !2, !3}
!llvm.ident = !{!4}

!0 = !{i32 1, !"wchar_size", i32 4}
!1 = !{i32 7, !"PIC Level", i32 2}
!2 = !{i32 7, !"PIE Level", i32 2}
!3 = !{i32 7, !"uwtable", i32 1}
!4 = !{!"clang version 13.0.0"}
!5 = !{!6, !6, i64 0}
!6 = !{!"int", !7, i64 0}
!7 = !{!"omnipotent char", !8, i64 0}
!8 = !{!"Simple C/C++ TBAA"}
!9 = distinct !{!9, !10}
!10 = !{!"llvm.loop.mustprogress"}
!11 = distinct !{!11, !10}
!12 = distinct !{!12, !10, !13}
!13 = !{!"llvm.loop.isvectorized", i32 1}
!14 = distinct !{!14, !10, !15, !13}
!15 = !{!"llvm.loop.unroll.runtime.disable"}
